target datalayout = "e-m:e-p270:32:32-p271:32:32-p272:64:64-i64:64-i128:128-f80:128-n8:16:32:64-S128"
target triple = "x86_64-pc-linux-gnu"

%struct.pfcp_generic_ie = type { i16, i16, ptr, ptr, i32 }

@proto_pfcp = internal global i32 0, align 4
@.str.2011 = private unnamed_addr constant [20 x i8] c"pfcp.enterprise_ies\00", align 1

; Function Attrs: null_pointer_is_valid sspstrong uwtable
define internal void @pfcp_register_generic_ie_dissector(i16 noundef zeroext %0, ptr noundef %1, ptr noundef %2, ptr noundef %3, ptr noundef %4, i32 noundef %5) #0 {
  %7 = alloca i16, align 2
  %8 = alloca ptr, align 8
  %9 = alloca ptr, align 8
  %10 = alloca ptr, align 8
  %11 = alloca ptr, align 8
  %12 = alloca i32, align 4
  %13 = alloca ptr, align 8
  %14 = alloca i32, align 4
  %15 = alloca ptr, align 8
  %16 = alloca i32, align 4
  %17 = alloca ptr, align 8
  store i16 %0, ptr %7, align 2
  store ptr %1, ptr %8, align 8
  store ptr %2, ptr %9, align 8
  store ptr %3, ptr %10, align 8
  store ptr %4, ptr %11, align 8
  store i32 %5, ptr %12, align 4
  call void @llvm.lifetime.start.p0(i64 8, ptr %13) #13
  %18 = call ptr @wmem_epan_scope()
  %19 = load i32, ptr %12, align 4
  %20 = zext i32 %19 to i64
  %21 = mul i64 8, %20
  %22 = call noalias ptr @wmem_alloc(ptr noundef %18, i64 noundef %21) #14
  store ptr %22, ptr %13, align 8
  call void @llvm.lifetime.start.p0(i64 4, ptr %14) #13
  store i32 0, ptr %14, align 4
  br label %23

23:                                               ; preds = %43, %6
  %24 = load i32, ptr %14, align 4
  %25 = load i32, ptr %12, align 4
  %26 = icmp ult i32 %24, %25
  br i1 %26, label %28, label %27

27:                                               ; preds = %23
  call void @llvm.lifetime.end.p0(i64 4, ptr %14) #13
  br label %46

28:                                               ; preds = %23
  %29 = load ptr, ptr %11, align 8
  %30 = load i32, ptr %14, align 4
  %31 = zext i32 %30 to i64
  %32 = getelementptr %struct.pfcp_generic_ie, ptr %29, i64 %31
  %33 = getelementptr inbounds nuw %struct.pfcp_generic_ie, ptr %32, i32 0, i32 4
  store i32 -1, ptr %33, align 8
  %34 = load ptr, ptr %11, align 8
  %35 = load i32, ptr %14, align 4
  %36 = zext i32 %35 to i64
  %37 = getelementptr %struct.pfcp_generic_ie, ptr %34, i64 %36
  %38 = getelementptr inbounds nuw %struct.pfcp_generic_ie, ptr %37, i32 0, i32 4
  %39 = load ptr, ptr %13, align 8
  %40 = load i32, ptr %14, align 4
  %41 = zext i32 %40 to i64
  %42 = getelementptr ptr, ptr %39, i64 %41
  store ptr %38, ptr %42, align 8
  br label %43

43:                                               ; preds = %28
  %44 = load i32, ptr %14, align 4
  %45 = add i32 %44, 1
  store i32 %45, ptr %14, align 4
  br label %23, !llvm.loop !11

46:                                               ; preds = %27
  %47 = load ptr, ptr %13, align 8
  %48 = load i32, ptr %12, align 4
  call void @proto_register_subtree_array(ptr noundef %47, i32 noundef %48)
  call void @llvm.lifetime.start.p0(i64 8, ptr %15) #13
  %49 = load ptr, ptr %9, align 8
  %50 = load ptr, ptr %10, align 8
  %51 = load i32, ptr @proto_pfcp, align 4
  %52 = call ptr @register_dissector_table(ptr noundef %49, ptr noundef %50, i32 noundef %51, i32 noundef 5, i32 noundef 1)
  store ptr %52, ptr %15, align 8
  call void @llvm.lifetime.start.p0(i64 4, ptr %16) #13
  store i32 0, ptr %16, align 4
  br label %53

53:                                               ; preds = %72, %46
  %54 = load i32, ptr %16, align 4
  %55 = load i32, ptr %12, align 4
  %56 = icmp ult i32 %54, %55
  br i1 %56, label %58, label %57

57:                                               ; preds = %53
  call void @llvm.lifetime.end.p0(i64 4, ptr %16) #13
  br label %75

58:                                               ; preds = %53
  %59 = load ptr, ptr %9, align 8
  %60 = load ptr, ptr %11, align 8
  %61 = load i32, ptr %16, align 4
  %62 = zext i32 %61 to i64
  %63 = getelementptr %struct.pfcp_generic_ie, ptr %60, i64 %62
  %64 = getelementptr inbounds nuw %struct.pfcp_generic_ie, ptr %63, i32 0, i32 1
  %65 = load i16, ptr %64, align 2
  %66 = zext i16 %65 to i32
  %67 = load ptr, ptr %11, align 8
  %68 = load i32, ptr %16, align 4
  %69 = zext i32 %68 to i64
  %70 = getelementptr %struct.pfcp_generic_ie, ptr %67, i64 %69
  %71 = call ptr @create_dissector_handle_with_data(ptr noundef @dissect_pfcp_generic_ie_cb, i32 noundef -1, ptr noundef %70)
  call void @dissector_add_uint(ptr noundef %59, i32 noundef %66, ptr noundef %71)
  br label %72

72:                                               ; preds = %58
  %73 = load i32, ptr %16, align 4
  %74 = add i32 %73, 1
  store i32 %74, ptr %16, align 4
  br label %53, !llvm.loop !12

75:                                               ; preds = %57
  call void @llvm.lifetime.start.p0(i64 8, ptr %17) #13
  %76 = load ptr, ptr %8, align 8
  %77 = load i32, ptr @proto_pfcp, align 4
  %78 = load ptr, ptr %15, align 8
  %79 = call ptr @register_dissector_with_data(ptr noundef %76, ptr noundef @dissect_pfcp_generic_enterprise_ie, i32 noundef %77, ptr noundef %78)
  store ptr %79, ptr %17, align 8
  %80 = load i16, ptr %7, align 2
  %81 = zext i16 %80 to i32
  %82 = load ptr, ptr %17, align 8
  call void @dissector_add_uint(ptr noundef @.str.2011, i32 noundef %81, ptr noundef %82)
  call void @llvm.lifetime.end.p0(i64 8, ptr %17) #13
  call void @llvm.lifetime.end.p0(i64 8, ptr %15) #13
  call void @llvm.lifetime.end.p0(i64 8, ptr %13) #13
  ret void
}